target datalayout = "e-m:e-p270:32:32-p271:32:32-p272:64:64-i64:64-i128:128-f80:128-n8:16:32:64-S128"
target triple = "x86_64-pc-linux-gnu"

%struct.priv_map = type { ptr, i64 }

@.str.1 = private unnamed_addr constant [6 x i8] c"acl.c\00", align 1
@.str.56 = private unnamed_addr constant [34 x i8] c"unrecognized privilege type: \22%s\22\00", align 1
@__func__.convert_any_priv_string = private unnamed_addr constant [24 x i8] c"convert_any_priv_string\00", align 1

; Function Attrs: nounwind uwtable
define internal i64 @convert_any_priv_string(ptr noundef %0, ptr noundef %1) #0 {
  %3 = alloca ptr, align 8
  %4 = alloca ptr, align 8
  %5 = alloca i64, align 8
  %6 = alloca ptr, align 8
  %7 = alloca ptr, align 8
  %8 = alloca ptr, align 8
  %9 = alloca i32, align 4
  %10 = alloca ptr, align 8
  store ptr %0, ptr %3, align 8
  store ptr %1, ptr %4, align 8
  call void @llvm.lifetime.start.p0(i64 8, ptr %5) #9
  store i64 0, ptr %5, align 8
  call void @llvm.lifetime.start.p0(i64 8, ptr %6) #9
  %11 = load ptr, ptr %3, align 8
  %12 = call ptr @text_to_cstring(ptr noundef %11)
  store ptr %12, ptr %6, align 8
  call void @llvm.lifetime.start.p0(i64 8, ptr %7) #9
  call void @llvm.lifetime.start.p0(i64 8, ptr %8) #9
  %13 = load ptr, ptr %6, align 8
  store ptr %13, ptr %7, align 8
  br label %14

14:                                               ; preds = %123, %2
  %15 = load ptr, ptr %7, align 8
  %16 = icmp ne ptr %15, null
  br i1 %16, label %17, label %125

17:                                               ; preds = %14
  call void @llvm.lifetime.start.p0(i64 4, ptr %9) #9
  call void @llvm.lifetime.start.p0(i64 8, ptr %10) #9
  %18 = load ptr, ptr %7, align 8
  %19 = call ptr @strchr(ptr noundef %18, i32 noundef 44) #11
  store ptr %19, ptr %8, align 8
  %20 = load ptr, ptr %8, align 8
  %21 = icmp ne ptr %20, null
  br i1 %21, label %22, label %25

22:                                               ; preds = %17
  %23 = load ptr, ptr %8, align 8
  %24 = getelementptr inbounds nuw i8, ptr %23, i32 1
  store ptr %24, ptr %8, align 8
  store i8 0, ptr %23, align 1
  br label %25

25:                                               ; preds = %22, %17
  br label %26

26:                                               ; preds = %45, %25
  %27 = load ptr, ptr %7, align 8
  %28 = load i8, ptr %27, align 1
  %29 = sext i8 %28 to i32
  %30 = icmp ne i32 %29, 0
  br i1 %30, label %31, label %43

31:                                               ; preds = %26
  %32 = call ptr @__ctype_b_loc() #12
  %33 = load ptr, ptr %32, align 8
  %34 = load ptr, ptr %7, align 8
  %35 = load i8, ptr %34, align 1
  %36 = zext i8 %35 to i32
  %37 = sext i32 %36 to i64
  %38 = getelementptr inbounds i16, ptr %33, i64 %37
  %39 = load i16, ptr %38, align 2
  %40 = zext i16 %39 to i32
  %41 = and i32 %40, 8192
  %42 = icmp ne i32 %41, 0
  br label %43

43:                                               ; preds = %31, %26
  %44 = phi i1 [ false, %26 ], [ %42, %31 ]
  br i1 %44, label %45, label %48

45:                                               ; preds = %43
  %46 = load ptr, ptr %7, align 8
  %47 = getelementptr inbounds nuw i8, ptr %46, i32 1
  store ptr %47, ptr %7, align 8
  br label %26, !llvm.loop !25

48:                                               ; preds = %43
  %49 = load ptr, ptr %7, align 8
  %50 = call i64 @strlen(ptr noundef %49) #11
  %51 = trunc i64 %50 to i32
  store i32 %51, ptr %9, align 4
  br label %52

52:                                               ; preds = %73, %48
  %53 = load i32, ptr %9, align 4
  %54 = icmp sgt i32 %53, 0
  br i1 %54, label %55, label %71

55:                                               ; preds = %52
  %56 = call ptr @__ctype_b_loc() #12
  %57 = load ptr, ptr %56, align 8
  %58 = load ptr, ptr %7, align 8
  %59 = load i32, ptr %9, align 4
  %60 = sub i32 %59, 1
  %61 = sext i32 %60 to i64
  %62 = getelementptr inbounds i8, ptr %58, i64 %61
  %63 = load i8, ptr %62, align 1
  %64 = zext i8 %63 to i32
  %65 = sext i32 %64 to i64
  %66 = getelementptr inbounds i16, ptr %57, i64 %65
  %67 = load i16, ptr %66, align 2
  %68 = zext i16 %67 to i32
  %69 = and i32 %68, 8192
  %70 = icmp ne i32 %69, 0
  br label %71

71:                                               ; preds = %55, %52
  %72 = phi i1 [ false, %52 ], [ %70, %55 ]
  br i1 %72, label %73, label %76

73:                                               ; preds = %71
  %74 = load i32, ptr %9, align 4
  %75 = add i32 %74, -1
  store i32 %75, ptr %9, align 4
  br label %52, !llvm.loop !26

76:                                               ; preds = %71
  %77 = load ptr, ptr %7, align 8
  %78 = load i32, ptr %9, align 4
  %79 = sext i32 %78 to i64
  %80 = getelementptr inbounds i8, ptr %77, i64 %79
  store i8 0, ptr %80, align 1
  %81 = load ptr, ptr %4, align 8
  store ptr %81, ptr %10, align 8
  br label %82

82:                                               ; preds = %101, %76
  %83 = load ptr, ptr %10, align 8
  %84 = getelementptr inbounds nuw %struct.priv_map, ptr %83, i32 0, i32 0
  %85 = load ptr, ptr %84, align 8
  %86 = icmp ne ptr %85, null
  br i1 %86, label %87, label %104

87:                                               ; preds = %82
  %88 = load ptr, ptr %10, align 8
  %89 = getelementptr inbounds nuw %struct.priv_map, ptr %88, i32 0, i32 0
  %90 = load ptr, ptr %89, align 8
  %91 = load ptr, ptr %7, align 8
  %92 = call i32 @pg_strcasecmp(ptr noundef %90, ptr noundef %91)
  %93 = icmp eq i32 %92, 0
  br i1 %93, label %94, label %100

94:                                               ; preds = %87
  %95 = load ptr, ptr %10, align 8
  %96 = getelementptr inbounds nuw %struct.priv_map, ptr %95, i32 0, i32 1
  %97 = load i64, ptr %96, align 8
  %98 = load i64, ptr %5, align 8
  %99 = or i64 %98, %97
  store i64 %99, ptr %5, align 8
  br label %104

100:                                              ; preds = %87
  br label %101

101:                                              ; preds = %100
  %102 = load ptr, ptr %10, align 8
  %103 = getelementptr inbounds nuw %struct.priv_map, ptr %102, i32 1
  store ptr %103, ptr %10, align 8
  br label %82, !llvm.loop !27

104:                                              ; preds = %94, %82
  %105 = load ptr, ptr %10, align 8
  %106 = getelementptr inbounds nuw %struct.priv_map, ptr %105, i32 0, i32 0
  %107 = load ptr, ptr %106, align 8
  %108 = icmp ne ptr %107, null
  br i1 %108, label %122, label %109

109:                                              ; preds = %104
  br label %110

110:                                              ; preds = %109
  br i1 true, label %111, label %113

111:                                              ; preds = %110
  %112 = call zeroext i1 @errstart_cold(i32 noundef 21, ptr noundef null) #10
  br i1 %112, label %115, label %119

113:                                              ; preds = %110
  %114 = call zeroext i1 @errstart(i32 noundef 21, ptr noundef null)
  br i1 %114, label %115, label %119

115:                                              ; preds = %113, %111
  %116 = call i32 @errcode(i32 noundef 50856066)
  %117 = load ptr, ptr %7, align 8
  %118 = call i32 (ptr, ...) @errmsg(ptr noundef @.str.56, ptr noundef %117)
  call void @errfinish(ptr noundef @.str.1, i32 noundef 1709, ptr noundef @__func__.convert_any_priv_string)
  br label %119

119:                                              ; preds = %115, %113, %111
  unreachable

120:                                              ; No predecessors!
  br label %121

121:                                              ; preds = %120
  br label %122

122:                                              ; preds = %121, %104
  call void @llvm.lifetime.end.p0(i64 8, ptr %10) #9
  call void @llvm.lifetime.end.p0(i64 4, ptr %9) #9
  br label %123

123:                                              ; preds = %122
  %124 = load ptr, ptr %8, align 8
  store ptr %124, ptr %7, align 8
  br label %14, !llvm.loop !28

125:                                              ; preds = %14
  %126 = load ptr, ptr %6, align 8
  call void @pfree(ptr noundef %126)
  %127 = load i64, ptr %5, align 8
  call void @llvm.lifetime.end.p0(i64 8, ptr %8) #9
  call void @llvm.lifetime.end.p0(i64 8, ptr %7) #9
  call void @llvm.lifetime.end.p0(i64 8, ptr %6) #9
  call void @llvm.lifetime.end.p0(i64 8, ptr %5) #9
  ret i64 %127
}