; Function Attrs: nounwind uwtable
define internal fastcc i64 @convert_any_priv_string(ptr noundef %0, ptr noundef readonly captures(none) %1) unnamed_addr #0 {
  %3 = tail call ptr @text_to_cstring(ptr noundef %0) #14
  br label %4

4:                                                ; preds = %45, %2
  %.032 = phi i64 [ 0, %2 ], [ %48, %45 ]
  %.031 = phi ptr [ %3, %2 ], [ %.030, %45 ]
  %.not = icmp eq ptr %.031, null
  br i1 %.not, label %52, label %5

5:                                                ; preds = %4
  %6 = tail call ptr @strchr(ptr noundef nonnull dereferenceable(1) %.031, i32 noundef 44) #17
  %.not37 = icmp eq ptr %6, null
  br i1 %.not37, label %9, label %7

7:                                                ; preds = %5
  %8 = getelementptr inbounds nuw i8, ptr %6, i64 1
  store i8 0, ptr %6, align 1
  br label %9

9:                                                ; preds = %7, %5
  %.030 = phi ptr [ %8, %7 ], [ null, %5 ]
  %10 = load i8, ptr %.031, align 1
  %.not3851 = icmp eq i8 %10, 0
  br i1 %.not3851, label %.critedge, label %.lr.ph

.lr.ph:                                           ; preds = %9
  %11 = tail call ptr @__ctype_b_loc() #16
  %12 = load ptr, ptr %11, align 8
  br label %13

13:                                               ; preds = %.lr.ph, %19
  %14 = phi i8 [ %10, %.lr.ph ], [ %21, %19 ]
  %.152 = phi ptr [ %.031, %.lr.ph ], [ %20, %19 ]
  %15 = zext i8 %14 to i64
  %16 = getelementptr inbounds nuw i16, ptr %12, i64 %15
  %17 = load i16, ptr %16, align 2
  %18 = and i16 %17, 8192
  %.not39 = icmp eq i16 %18, 0
  br i1 %.not39, label %.critedge, label %19

19:                                               ; preds = %13
  %20 = getelementptr inbounds nuw i8, ptr %.152, i64 1
  %21 = load i8, ptr %20, align 1
  %.not38 = icmp eq i8 %21, 0
  br i1 %.not38, label %.critedge, label %13, !llvm.loop !23

.critedge:                                        ; preds = %13, %19, %9
  %.1.lcssa = phi ptr [ %.031, %9 ], [ %20, %19 ], [ %.152, %13 ]
  %22 = tail call i64 @strlen(ptr noundef nonnull dereferenceable(1) %.1.lcssa) #17
  %23 = trunc i64 %22 to i32
  %invariant.gep = getelementptr i8, ptr %.1.lcssa, i64 -1
  %24 = icmp sgt i32 %23, 0
  br i1 %24, label %.lr.ph56, label %.critedge2

.lr.ph56:                                         ; preds = %.critedge
  %25 = tail call ptr @__ctype_b_loc() #16
  %26 = load ptr, ptr %25, align 8
  %27 = and i64 %22, 2147483647
  br label %28

28:                                               ; preds = %.lr.ph56, %34
  %indvars.iv = phi i64 [ %27, %.lr.ph56 ], [ %indvars.iv.next, %34 ]
  %gep = getelementptr i8, ptr %invariant.gep, i64 %indvars.iv
  %29 = load i8, ptr %gep, align 1
  %30 = zext i8 %29 to i64
  %31 = getelementptr inbounds nuw i16, ptr %26, i64 %30
  %32 = load i16, ptr %31, align 2
  %33 = and i16 %32, 8192
  %.not40 = icmp eq i16 %33, 0
  br i1 %.not40, label %.critedge2, label %34

34:                                               ; preds = %28
  %indvars.iv.next = add nsw i64 %indvars.iv, -1
  %35 = icmp sgt i64 %indvars.iv, 1
  br i1 %35, label %28, label %.critedge2, !llvm.loop !24

.critedge2:                                       ; preds = %28, %34, %.critedge
  %.029.lcssa = phi i64 [ %22, %.critedge ], [ 0, %34 ], [ %indvars.iv, %28 ]
  %sext = shl i64 %.029.lcssa, 32
  %36 = ashr exact i64 %sext, 32
  %37 = getelementptr inbounds i8, ptr %.1.lcssa, i64 %36
  store i8 0, ptr %37, align 1
  %38 = load ptr, ptr %1, align 8
  %.not4160 = icmp eq ptr %38, null
  br i1 %.not4160, label %.thread, label %.lr.ph62

.lr.ph62:                                         ; preds = %.critedge2, %42
  %39 = phi ptr [ %44, %42 ], [ %38, %.critedge2 ]
  %.061 = phi ptr [ %43, %42 ], [ %1, %.critedge2 ]
  %40 = tail call i32 @pg_strcasecmp(ptr noundef nonnull %39, ptr noundef nonnull %.1.lcssa) #14
  %41 = icmp eq i32 %40, 0
  br i1 %41, label %45, label %42

42:                                               ; preds = %.lr.ph62
  %43 = getelementptr inbounds nuw i8, ptr %.061, i64 16
  %44 = load ptr, ptr %43, align 8
  %.not41 = icmp eq ptr %44, null
  br i1 %.not41, label %.thread, label %.lr.ph62, !llvm.loop !25

45:                                               ; preds = %.lr.ph62
  %46 = getelementptr inbounds nuw i8, ptr %.061, i64 8
  %47 = load i64, ptr %46, align 8
  %48 = or i64 %47, %.032
  %.pr = load ptr, ptr %.061, align 8
  %.not42 = icmp eq ptr %.pr, null
  br i1 %.not42, label %.thread, label %4, !llvm.loop !26

.thread:                                          ; preds = %45, %.critedge2, %42
  %49 = tail call zeroext i1 @errstart_cold(i32 noundef 21, ptr noundef null) #15
  tail call void @llvm.assume(i1 %49)
  %50 = tail call i32 @errcode(i32 noundef 50856066) #14
  %51 = tail call i32 (ptr, ...) @errmsg(ptr noundef nonnull @.str.56, ptr noundef nonnull %.1.lcssa) #14
  tail call void @errfinish(ptr noundef nonnull @.str.1, i32 noundef 1709, ptr noundef nonnull @__func__.convert_any_priv_string) #14
  unreachable

52:                                               ; preds = %4
  tail call void @pfree(ptr noundef %3) #14
  ret i64 %.032
}